; Function Attrs: mustprogress noreturn uwtable
define void @_ZNK3nix8fetchers11InputScheme7putFileERKNS0_5InputERKNS_9CanonPathESt17basic_string_viewIcSt11char_traitsIcEESt8optionalINSt7__cxx1112basic_stringIcSA_SaIcEEEE(ptr nocapture nonnull readnone align 8 %0, ptr noundef nonnull align 8 dereferenceable(104) %1, ptr noundef nonnull align 8 dereferenceable(32) %2, i64 %3, ptr nocapture readnone %4, ptr nocapture readnone %5) unnamed_addr #11 align 2 personality ptr @__gxx_personality_v0 {
  %7 = alloca %"struct.nix::ParsedURL", align 8
  %8 = alloca %"class.std::__cxx11::basic_string", align 8
  %9 = alloca %"class.std::allocator.9", align 1
  %10 = alloca %"class.std::__cxx11::basic_string", align 8
  %11 = tail call ptr @__cxa_allocate_exception(i64 376) #27
  call void @_ZNSaIcEC1Ev(ptr noundef nonnull align 1 dereferenceable(1) %9) #27
  invoke void @_ZNSt7__cxx1112basic_stringIcSt11char_traitsIcESaIcEEC2IS3_EEPKcRKS3_(ptr noundef nonnull align 8 dereferenceable(32) %8, ptr noundef nonnull @.str.31, ptr noundef nonnull align 1 dereferenceable(1) %9)
          to label %12 unwind label %.thread

12:                                               ; preds = %6
  call void @llvm.lifetime.start.p0(i64 248, ptr nonnull %7)
  invoke void @_ZNK3nix8fetchers5Input5toURLEv(ptr dead_on_unwind nonnull writable sret(%"struct.nix::ParsedURL") align 8 %7, ptr noundef nonnull align 8 dereferenceable(104) %1)
          to label %.noexc unwind label %18

.noexc:                                           ; preds = %12
  invoke void @_ZNK3nix9ParsedURL9to_stringB5cxx11Ev(ptr dead_on_unwind nonnull writable sret(%"class.std::__cxx11::basic_string") align 8 %10, ptr noundef nonnull align 8 dereferenceable(248) %7)
          to label %15 unwind label %13

13:                                               ; preds = %.noexc
  %14 = landingpad { ptr, i32 }
          cleanup
  call void @_ZN3nix9ParsedURLD2Ev(ptr noundef nonnull align 8 dereferenceable(248) %7) #27
  br label %.body

15:                                               ; preds = %.noexc
  call void @_ZN3nix9ParsedURLD2Ev(ptr noundef nonnull align 8 dereferenceable(248) %7) #27
  call void @llvm.lifetime.end.p0(i64 248, ptr nonnull %7)
  invoke void @_ZN3nix9BaseErrorC2IJNSt7__cxx1112basic_stringIcSt11char_traitsIcESaIcEEENS_9CanonPathEEEERKS7_DpRKT_(ptr noundef nonnull align 8 dereferenceable(376) %11, ptr noundef nonnull align 8 dereferenceable(32) %8, ptr noundef nonnull align 8 dereferenceable(32) %10, ptr noundef nonnull align 8 dereferenceable(32) %2)
          to label %16 unwind label %20

16:                                               ; preds = %15
  store ptr getelementptr inbounds ({ [5 x ptr] }, ptr @_ZTVN3nix5ErrorE, i64 0, i32 0, i64 2), ptr %11, align 8
  invoke void @__cxa_throw(ptr nonnull %11, ptr nonnull @_ZTIN3nix5ErrorE, ptr nonnull @_ZN3nix5ErrorD2Ev) #31
          to label %37 unwind label %20

.thread:                                          ; preds = %6
  %17 = landingpad { ptr, i32 }
          cleanup
  call void @_ZNSaIcED1Ev(ptr noundef nonnull align 1 dereferenceable(1) %9) #27
  br label %35

18:                                               ; preds = %12
  %19 = landingpad { ptr, i32 }
          cleanup
  br label %.body

20:                                               ; preds = %15, %16
  %.0 = phi i1 [ false, %16 ], [ true, %15 ]
  %21 = landingpad { ptr, i32 }
          cleanup
  %22 = load ptr, ptr %10, align 8
  %23 = getelementptr inbounds i8, ptr %10, i64 16
  %24 = icmp eq ptr %22, %23
  br i1 %24, label %_ZNKSt7__cxx1112basic_stringIcSt11char_traitsIcESaIcEE11_M_is_localEv.exit.thread.i.i, label %_ZNKSt7__cxx1112basic_stringIcSt11char_traitsIcESaIcEE11_M_is_localEv.exit.i.i

_ZNKSt7__cxx1112basic_stringIcSt11char_traitsIcESaIcEE11_M_is_localEv.exit.thread.i.i: ; preds = %20
  %25 = getelementptr inbounds i8, ptr %10, i64 8
  %26 = load i64, ptr %25, align 8
  %27 = icmp ult i64 %26, 16
  call void @llvm.assume(i1 %27)
  br label %_ZNSt7__cxx1112basic_stringIcSt11char_traitsIcESaIcEED2Ev.exit

_ZNKSt7__cxx1112basic_stringIcSt11char_traitsIcESaIcEE11_M_is_localEv.exit.i.i: ; preds = %20
  call void @_ZdlPv(ptr noundef %22) #29
  br label %_ZNSt7__cxx1112basic_stringIcSt11char_traitsIcESaIcEED2Ev.exit

_ZNSt7__cxx1112basic_stringIcSt11char_traitsIcESaIcEED2Ev.exit: ; preds = %_ZNKSt7__cxx1112basic_stringIcSt11char_traitsIcESaIcEE11_M_is_localEv.exit.thread.i.i, %_ZNKSt7__cxx1112basic_stringIcSt11char_traitsIcESaIcEE11_M_is_localEv.exit.i.i
  call void @_ZNSaIcED2Ev(ptr noundef nonnull align 1 dereferenceable(1) %10) #27
  br label %.body

.body:                                            ; preds = %18, %13, %_ZNSt7__cxx1112basic_stringIcSt11char_traitsIcESaIcEED2Ev.exit
  %.pn = phi { ptr, i32 } [ %21, %_ZNSt7__cxx1112basic_stringIcSt11char_traitsIcESaIcEED2Ev.exit ], [ %19, %18 ], [ %14, %13 ]
  %.1 = phi i1 [ %.0, %_ZNSt7__cxx1112basic_stringIcSt11char_traitsIcESaIcEED2Ev.exit ], [ true, %18 ], [ true, %13 ]
  %28 = load ptr, ptr %8, align 8
  %29 = getelementptr inbounds i8, ptr %8, i64 16
  %30 = icmp eq ptr %28, %29
  br i1 %30, label %_ZNKSt7__cxx1112basic_stringIcSt11char_traitsIcESaIcEE11_M_is_localEv.exit.thread.i.i12, label %_ZNKSt7__cxx1112basic_stringIcSt11char_traitsIcESaIcEE11_M_is_localEv.exit.i.i11

_ZNKSt7__cxx1112basic_stringIcSt11char_traitsIcESaIcEE11_M_is_localEv.exit.thread.i.i12: ; preds = %.body
  %31 = getelementptr inbounds i8, ptr %8, i64 8
  %32 = load i64, ptr %31, align 8
  %33 = icmp ult i64 %32, 16
  call void @llvm.assume(i1 %33)
  br label %34

_ZNKSt7__cxx1112basic_stringIcSt11char_traitsIcESaIcEE11_M_is_localEv.exit.i.i11: ; preds = %.body
  call void @_ZdlPv(ptr noundef %28) #29
  br label %34

34:                                               ; preds = %_ZNKSt7__cxx1112basic_stringIcSt11char_traitsIcESaIcEE11_M_is_localEv.exit.i.i11, %_ZNKSt7__cxx1112basic_stringIcSt11char_traitsIcESaIcEE11_M_is_localEv.exit.thread.i.i12
  call void @_ZNSaIcED2Ev(ptr noundef nonnull align 1 dereferenceable(1) %8) #27
  call void @_ZNSaIcED1Ev(ptr noundef nonnull align 1 dereferenceable(1) %9) #27
  br i1 %.1, label %35, label %36

35:                                               ; preds = %.thread, %34
  %.pn.pn17 = phi { ptr, i32 } [ %17, %.thread ], [ %.pn, %34 ]
  call void @__cxa_free_exception(ptr %11) #27
  br label %36

36:                                               ; preds = %34, %35
  %.pn.pn16 = phi { ptr, i32 } [ %.pn, %34 ], [ %.pn.pn17, %35 ]
  resume { ptr, i32 } %.pn.pn16

37:                                               ; preds = %16
  unreachable
}